; Function Attrs: mustprogress uwtable
define hidden noundef zeroext i1 @_ZN5smtfd14plugin_context12sort_coveredEP4sort(ptr noundef nonnull readonly align 8 captures(none) dereferenceable(72) %0, ptr noundef %1) local_unnamed_addr #3 align 2 {
  %3 = getelementptr inbounds nuw i8, ptr %0, i64 56
  %4 = load ptr, ptr %3, align 8, !tbaa !3
  %5 = icmp eq ptr %4, null
  br i1 %5, label %._crit_edge, label %_ZN6vectorIPN5smtfd13theory_pluginELb0EjE3endEv.exit

_ZN6vectorIPN5smtfd13theory_pluginELb0EjE3endEv.exit: ; preds = %2
  %6 = getelementptr inbounds i8, ptr %4, i64 -4
  %7 = load i32, ptr %6, align 4, !tbaa !10
  %8 = zext i32 %7 to i64
  %9 = getelementptr inbounds nuw ptr, ptr %4, i64 %8
  %.not14.not = icmp eq i32 %7, 0
  br i1 %.not14.not, label %._crit_edge, label %.lr.ph

.lr.ph:                                           ; preds = %_ZN6vectorIPN5smtfd13theory_pluginELb0EjE3endEv.exit, %.lr.ph
  %.01315 = phi ptr [ %15, %.lr.ph ], [ %4, %_ZN6vectorIPN5smtfd13theory_pluginELb0EjE3endEv.exit ]
  %10 = load ptr, ptr %.01315, align 8, !tbaa !12
  %11 = load ptr, ptr %10, align 8, !tbaa !14
  %12 = getelementptr inbounds nuw i8, ptr %11, i64 56
  %13 = load ptr, ptr %12, align 8
  %14 = tail call noundef zeroext i1 %13(ptr noundef nonnull align 8 dereferenceable(144) %10, ptr noundef %1)
  %15 = getelementptr inbounds nuw i8, ptr %.01315, i64 8
  %.not.not = icmp eq ptr %15, %9
  %or.cond = select i1 %14, i1 true, i1 %.not.not
  br i1 %or.cond, label %._crit_edge, label %.lr.ph

._crit_edge:                                      ; preds = %.lr.ph, %2, %_ZN6vectorIPN5smtfd13theory_pluginELb0EjE3endEv.exit
  %.not.lcssa = phi i1 [ false, %_ZN6vectorIPN5smtfd13theory_pluginELb0EjE3endEv.exit ], [ false, %2 ], [ %14, %.lr.ph ]
  ret i1 %.not.lcssa
}